target datalayout = "e-m:e-p270:32:32-p271:32:32-p272:64:64-i64:64-i128:128-f80:128-n8:16:32:64-S128"
target triple = "x86_64-pc-linux-gnu"

; Function Attrs: mustprogress uwtable
define noundef i32 @_Z11gmx_wcmatchPKcS0_(ptr noundef %0, ptr noundef %1) #0 {
  %3 = alloca i32, align 4
  %4 = alloca ptr, align 8
  %5 = alloca ptr, align 8
  %6 = alloca i32, align 4
  %7 = alloca i32, align 4
  store ptr %0, ptr %4, align 8, !tbaa !4
  store ptr %1, ptr %5, align 8, !tbaa !4
  br label %8

8:                                                ; preds = %106, %2
  %9 = load ptr, ptr %4, align 8, !tbaa !4
  %10 = load i8, ptr %9, align 1, !tbaa !11
  %11 = icmp ne i8 %10, 0
  br i1 %11, label %12, label %109

12:                                               ; preds = %8
  %13 = load ptr, ptr %4, align 8, !tbaa !4
  %14 = load i8, ptr %13, align 1, !tbaa !11
  %15 = sext i8 %14 to i32
  %16 = icmp eq i32 %15, 42
  br i1 %16, label %17, label %83

17:                                               ; preds = %12
  br label %18

18:                                               ; preds = %47, %17
  %19 = load ptr, ptr %4, align 8, !tbaa !4
  %20 = load i8, ptr %19, align 1, !tbaa !11
  %21 = sext i8 %20 to i32
  %22 = icmp eq i32 %21, 42
  br i1 %22, label %28, label %23

23:                                               ; preds = %18
  %24 = load ptr, ptr %4, align 8, !tbaa !4
  %25 = load i8, ptr %24, align 1, !tbaa !11
  %26 = sext i8 %25 to i32
  %27 = icmp eq i32 %26, 63
  br label %28

28:                                               ; preds = %23, %18
  %29 = phi i1 [ true, %18 ], [ %27, %23 ]
  br i1 %29, label %30, label %48

30:                                               ; preds = %28
  %31 = load ptr, ptr %4, align 8, !tbaa !4
  %32 = getelementptr inbounds nuw i8, ptr %31, i32 1
  store ptr %32, ptr %4, align 8, !tbaa !4
  %33 = load ptr, ptr %4, align 8, !tbaa !4
  %34 = load i8, ptr %33, align 1, !tbaa !11
  %35 = sext i8 %34 to i32
  %36 = icmp eq i32 %35, 63
  br i1 %36, label %37, label %47

37:                                               ; preds = %30
  %38 = load ptr, ptr %5, align 8, !tbaa !4
  %39 = load i8, ptr %38, align 1, !tbaa !11
  %40 = sext i8 %39 to i32
  %41 = icmp eq i32 %40, 0
  br i1 %41, label %42, label %43

42:                                               ; preds = %37
  store i32 1, ptr %3, align 4
  br label %115

43:                                               ; preds = %37
  %44 = load ptr, ptr %5, align 8, !tbaa !4
  %45 = getelementptr inbounds nuw i8, ptr %44, i32 1
  store ptr %45, ptr %5, align 8, !tbaa !4
  br label %46

46:                                               ; preds = %43
  br label %47

47:                                               ; preds = %46, %30
  br label %18, !llvm.loop !83

48:                                               ; preds = %28
  %49 = load ptr, ptr %4, align 8, !tbaa !4
  %50 = load i8, ptr %49, align 1, !tbaa !11
  %51 = sext i8 %50 to i32
  %52 = icmp eq i32 %51, 0
  br i1 %52, label %53, label %54

53:                                               ; preds = %48
  store i32 0, ptr %3, align 4
  br label %115

54:                                               ; preds = %48
  br label %55

55:                                               ; preds = %79, %54
  %56 = load ptr, ptr %5, align 8, !tbaa !4
  %57 = load i8, ptr %56, align 1, !tbaa !11
  %58 = icmp ne i8 %57, 0
  br i1 %58, label %59, label %82

59:                                               ; preds = %55
  %60 = load ptr, ptr %4, align 8, !tbaa !4
  %61 = load i8, ptr %60, align 1, !tbaa !11
  %62 = sext i8 %61 to i32
  %63 = load ptr, ptr %5, align 8, !tbaa !4
  %64 = load i8, ptr %63, align 1, !tbaa !11
  %65 = sext i8 %64 to i32
  %66 = icmp eq i32 %62, %65
  br i1 %66, label %67, label %79

67:                                               ; preds = %59
  call void @llvm.lifetime.start.p0(i64 4, ptr %6) #13
  %68 = load ptr, ptr %4, align 8, !tbaa !4
  %69 = load ptr, ptr %5, align 8, !tbaa !4
  %70 = call noundef i32 @_Z11gmx_wcmatchPKcS0_(ptr noundef %68, ptr noundef %69)
  store i32 %70, ptr %6, align 4, !tbaa !9
  %71 = load i32, ptr %6, align 4, !tbaa !9
  %72 = icmp ne i32 %71, 1
  br i1 %72, label %73, label %75

73:                                               ; preds = %67
  %74 = load i32, ptr %6, align 4, !tbaa !9
  store i32 %74, ptr %3, align 4
  store i32 1, ptr %7, align 4
  br label %76

75:                                               ; preds = %67
  store i32 0, ptr %7, align 4
  br label %76

76:                                               ; preds = %75, %73
  call void @llvm.lifetime.end.p0(i64 4, ptr %6) #13
  %77 = load i32, ptr %7, align 4
  switch i32 %77, label %117 [
    i32 0, label %78
    i32 1, label %115
  ]

78:                                               ; preds = %76
  br label %79

79:                                               ; preds = %78, %59
  %80 = load ptr, ptr %5, align 8, !tbaa !4
  %81 = getelementptr inbounds nuw i8, ptr %80, i32 1
  store ptr %81, ptr %5, align 8, !tbaa !4
  br label %55, !llvm.loop !84

82:                                               ; preds = %55
  store i32 1, ptr %3, align 4
  br label %115

83:                                               ; preds = %12
  %84 = load ptr, ptr %4, align 8, !tbaa !4
  %85 = load i8, ptr %84, align 1, !tbaa !11
  %86 = sext i8 %85 to i32
  %87 = icmp eq i32 %86, 63
  br i1 %87, label %88, label %93

88:                                               ; preds = %83
  %89 = load ptr, ptr %5, align 8, !tbaa !4
  %90 = load i8, ptr %89, align 1, !tbaa !11
  %91 = sext i8 %90 to i32
  %92 = icmp ne i32 %91, 0
  br i1 %92, label %101, label %93

93:                                               ; preds = %88, %83
  %94 = load ptr, ptr %4, align 8, !tbaa !4
  %95 = load i8, ptr %94, align 1, !tbaa !11
  %96 = sext i8 %95 to i32
  %97 = load ptr, ptr %5, align 8, !tbaa !4
  %98 = load i8, ptr %97, align 1, !tbaa !11
  %99 = sext i8 %98 to i32
  %100 = icmp eq i32 %96, %99
  br i1 %100, label %101, label %104

101:                                              ; preds = %93, %88
  %102 = load ptr, ptr %5, align 8, !tbaa !4
  %103 = getelementptr inbounds nuw i8, ptr %102, i32 1
  store ptr %103, ptr %5, align 8, !tbaa !4
  br label %105

104:                                              ; preds = %93
  store i32 1, ptr %3, align 4
  br label %115

105:                                              ; preds = %101
  br label %106

106:                                              ; preds = %105
  %107 = load ptr, ptr %4, align 8, !tbaa !4
  %108 = getelementptr inbounds nuw i8, ptr %107, i32 1
  store ptr %108, ptr %4, align 8, !tbaa !4
  br label %8, !llvm.loop !85

109:                                              ; preds = %8
  %110 = load ptr, ptr %5, align 8, !tbaa !4
  %111 = load i8, ptr %110, align 1, !tbaa !11
  %112 = sext i8 %111 to i32
  %113 = icmp eq i32 %112, 0
  %114 = select i1 %113, i32 0, i32 1
  store i32 %114, ptr %3, align 4
  br label %115

115:                                              ; preds = %109, %104, %82, %76, %53, %42
  %116 = load i32, ptr %3, align 4
  ret i32 %116

117:                                              ; preds = %76
  unreachable
}