; Function Attrs: mustprogress nofree nosync nounwind willreturn memory(argmem: read) uwtable
define noundef range(i32 0, 2) i32 @_Z11gmx_wcmatchPKcS0_(ptr noundef readonly captures(none) %0, ptr noundef readonly captures(none) %1) local_unnamed_addr #17 {
  br label %3

3:                                                ; preds = %26, %2
  %.030 = phi ptr [ %0, %2 ], [ %28, %26 ]
  %.026 = phi ptr [ %1, %2 ], [ %27, %26 ]
  %4 = load i8, ptr %.030, align 1, !tbaa !4
  switch i8 %4, label %24 [
    i8 0, label %29
    i8 42, label %.preheader40.outer
    i8 63, label %22
  ]

.preheader40.outer:                               ; preds = %3, %13
  %.ph = phi i8 [ %8, %13 ], [ %4, %3 ]
  %.131.ph = phi ptr [ %7, %13 ], [ %.030, %3 ]
  %.127.ph = phi ptr [ %14, %13 ], [ %.026, %3 ]
  br label %.preheader40

.preheader40:                                     ; preds = %.preheader40.outer, %.critedge
  %5 = phi i8 [ %8, %.critedge ], [ %.ph, %.preheader40.outer ]
  %.131 = phi ptr [ %7, %.critedge ], [ %.131.ph, %.preheader40.outer ]
  switch i8 %5, label %.preheader [
    i8 42, label %.critedge
    i8 63, label %.critedge
    i8 0, label %.loopexit
  ]

.preheader:                                       ; preds = %.preheader40
  %6 = load i8, ptr %.127.ph, align 1, !tbaa !4
  %.not3851 = icmp eq i8 %6, 0
  br i1 %.not3851, label %.loopexit, label %.lr.ph

.critedge:                                        ; preds = %.preheader40, %.preheader40
  %7 = getelementptr inbounds nuw i8, ptr %.131, i64 1
  %8 = load i8, ptr %7, align 1, !tbaa !4
  %9 = icmp eq i8 %8, 63
  br i1 %9, label %10, label %.preheader40, !llvm.loop !29

10:                                               ; preds = %.critedge
  %11 = load i8, ptr %.127.ph, align 1, !tbaa !4
  %12 = icmp eq i8 %11, 0
  br i1 %12, label %.loopexit, label %13

13:                                               ; preds = %10
  %14 = getelementptr inbounds nuw i8, ptr %.127.ph, i64 1
  br label %.preheader40.outer, !llvm.loop !29

.lr.ph:                                           ; preds = %.preheader, %19
  %15 = phi i8 [ %21, %19 ], [ %6, %.preheader ]
  %.32952 = phi ptr [ %20, %19 ], [ %.127.ph, %.preheader ]
  %16 = icmp eq i8 %5, %15
  br i1 %16, label %17, label %19

17:                                               ; preds = %.lr.ph
  %18 = tail call noundef i32 @_Z11gmx_wcmatchPKcS0_(ptr noundef nonnull %.131, ptr noundef nonnull %.32952)
  %.not39.not = icmp eq i32 %18, 0
  br i1 %.not39.not, label %.loopexit, label %19

19:                                               ; preds = %17, %.lr.ph
  %20 = getelementptr inbounds nuw i8, ptr %.32952, i64 1
  %21 = load i8, ptr %20, align 1, !tbaa !4
  %.not38 = icmp eq i8 %21, 0
  br i1 %.not38, label %.loopexit, label %.lr.ph, !llvm.loop !30

22:                                               ; preds = %3
  %23 = load i8, ptr %.026, align 1, !tbaa !4
  %.not37 = icmp eq i8 %23, 0
  br i1 %.not37, label %.loopexit, label %26

24:                                               ; preds = %3
  %.pre = load i8, ptr %.026, align 1, !tbaa !4
  %25 = icmp eq i8 %4, %.pre
  br i1 %25, label %26, label %.loopexit

26:                                               ; preds = %24, %22
  %27 = getelementptr inbounds nuw i8, ptr %.026, i64 1
  %28 = getelementptr inbounds nuw i8, ptr %.030, i64 1
  br label %3, !llvm.loop !31

29:                                               ; preds = %3
  %30 = load i8, ptr %.026, align 1, !tbaa !4
  %31 = icmp ne i8 %30, 0
  %32 = zext i1 %31 to i32
  br label %.loopexit

.loopexit:                                        ; preds = %22, %24, %.preheader40, %10, %19, %17, %.preheader, %29
  %.025 = phi i32 [ %32, %29 ], [ 1, %.preheader ], [ 1, %19 ], [ 0, %17 ], [ 0, %.preheader40 ], [ 1, %10 ], [ 1, %24 ], [ 1, %22 ]
  ret i32 %.025
}